target datalayout = "e-m:e-p270:32:32-p271:32:32-p272:64:64-i64:64-i128:128-f80:128-n8:16:32:64-S128"
target triple = "x86_64-unknown-linux-gnu"

%"class.Imf_3_2::TileDescription" = type { i32, i32, i32, i32 }
%"class.Imath_3_2::Box" = type { %"class.Imath_3_2::Vec2", %"class.Imath_3_2::Vec2" }
%"class.Imath_3_2::Vec2" = type { i32, i32 }
%"struct.std::_Rb_tree_key_compare" = type { %"struct.std::less" }
%"struct.std::less" = type { i8 }
%"struct.std::_Rb_tree_header" = type { %"struct.std::_Rb_tree_node_base", i64 }
%"struct.std::_Rb_tree_node_base" = type { i32, ptr, ptr, ptr }
%"class.Imf_3_2::Header" = type <{ %"class.std::map", i8, [7 x i8] }>
%"class.std::map" = type { %"class.std::_Rb_tree" }
%"class.std::_Rb_tree" = type { %"struct.std::_Rb_tree<Imf_3_2::Name, std::pair<const Imf_3_2::Name, Imf_3_2::Attribute *>, std::_Select1st<std::pair<const Imf_3_2::Name, Imf_3_2::Attribute *>>, std::less<Imf_3_2::Name>>::_Rb_tree_impl" }
%"struct.std::_Rb_tree<Imf_3_2::Name, std::pair<const Imf_3_2::Name, Imf_3_2::Attribute *>, std::_Select1st<std::pair<const Imf_3_2::Name, Imf_3_2::Attribute *>>, std::less<Imf_3_2::Name>>::_Rb_tree_impl" = type { %"struct.std::_Rb_tree_key_compare", %"struct.std::_Rb_tree_header" }
%"class.Imf_3_2::TiledRgbaOutputFile" = type { ptr, ptr, ptr }

@_ZTVN7Imf_3_219TiledRgbaOutputFileE = unnamed_addr constant { [4 x ptr] } { [4 x ptr] [ptr null, ptr @_ZTIN7Imf_3_219TiledRgbaOutputFileE, ptr @_ZN7Imf_3_219TiledRgbaOutputFileD1Ev, ptr @_ZN7Imf_3_219TiledRgbaOutputFileD0Ev] }, align 8
@_ZN7Imf_3_219TiledRgbaOutputFile4ToYaC1ERNS_15TiledOutputFileENS_12RgbaChannelsE = hidden unnamed_addr alias void (ptr, ptr, i32), ptr @_ZN7Imf_3_219TiledRgbaOutputFile4ToYaC2ERNS_15TiledOutputFileENS_12RgbaChannelsE

; Function Attrs: mustprogress nounwind uwtable
define linkonce_odr hidden noundef nonnull align 4 dereferenceable(4) ptr @_ZNK9Imath_3_24Vec2IiEixEi(ptr noundef nonnull align 4 dereferenceable(8) %this, i32 noundef %i) #5 comdat align 2 {
entry:
  %this.addr = alloca ptr, align 8
  %i.addr = alloca i32, align 4
  store ptr %this, ptr %this.addr, align 8
  store i32 %i, ptr %i.addr, align 4
  %this1 = load ptr, ptr %this.addr, align 8
  %x = getelementptr inbounds %"class.Imath_3_2::Vec2", ptr %this1, i32 0, i32 0
  %0 = load i32, ptr %i.addr, align 4
  %idxprom = sext i32 %0 to i64
  %arrayidx = getelementptr inbounds i32, ptr %x, i64 %idxprom
  ret ptr %arrayidx
}

; Function Attrs: mustprogress nounwind uwtable
define linkonce_odr hidden void @_ZN7Imf_3_215TileDescriptionC2EjjNS_9LevelModeENS_17LevelRoundingModeE(ptr noundef nonnull align 4 dereferenceable(16) %this, i32 noundef %xs, i32 noundef %ys, i32 noundef %m, i32 noundef %r) unnamed_addr #5 comdat align 2 {
entry:
  %this.addr = alloca ptr, align 8
  %xs.addr = alloca i32, align 4
  %ys.addr = alloca i32, align 4
  %m.addr = alloca i32, align 4
  %r.addr = alloca i32, align 4
  store ptr %this, ptr %this.addr, align 8
  store i32 %xs, ptr %xs.addr, align 4
  store i32 %ys, ptr %ys.addr, align 4
  store i32 %m, ptr %m.addr, align 4
  store i32 %r, ptr %r.addr, align 4
  %this1 = load ptr, ptr %this.addr, align 8
  %xSize = getelementptr inbounds %"class.Imf_3_2::TileDescription", ptr %this1, i32 0, i32 0
  %0 = load i32, ptr %xs.addr, align 4
  store i32 %0, ptr %xSize, align 4
  %ySize = getelementptr inbounds %"class.Imf_3_2::TileDescription", ptr %this1, i32 0, i32 1
  %1 = load i32, ptr %ys.addr, align 4
  store i32 %1, ptr %ySize, align 4
  %mode = getelementptr inbounds %"class.Imf_3_2::TileDescription", ptr %this1, i32 0, i32 2
  %2 = load i32, ptr %m.addr, align 4
  store i32 %2, ptr %mode, align 4
  %roundingMode = getelementptr inbounds %"class.Imf_3_2::TileDescription", ptr %this1, i32 0, i32 3
  %3 = load i32, ptr %r.addr, align 4
  store i32 %3, ptr %roundingMode, align 4
  ret void
}

; Function Attrs: mustprogress nounwind uwtable
define linkonce_odr hidden noundef zeroext i1 @_ZNK9Imath_3_23BoxINS_4Vec2IiEEE7isEmptyEv(ptr noundef nonnull align 4 dereferenceable(16) %this) #5 comdat align 2 {
entry:
  %retval = alloca i1, align 1
  %this.addr = alloca ptr, align 8
  store ptr %this, ptr %this.addr, align 8
  %this1 = load ptr, ptr %this.addr, align 8
  %max = getelementptr inbounds %"class.Imath_3_2::Box", ptr %this1, i32 0, i32 1
  %call = call noundef nonnull align 4 dereferenceable(4) ptr @_ZNK9Imath_3_24Vec2IiEixEi(ptr noundef nonnull align 4 dereferenceable(8) %max, i32 noundef 0) #3
  %0 = load i32, ptr %call, align 4
  %min = getelementptr inbounds %"class.Imath_3_2::Box", ptr %this1, i32 0, i32 0
  %call2 = call noundef nonnull align 4 dereferenceable(4) ptr @_ZNK9Imath_3_24Vec2IiEixEi(ptr noundef nonnull align 4 dereferenceable(8) %min, i32 noundef 0) #3
  %1 = load i32, ptr %call2, align 4
  %cmp = icmp slt i32 %0, %1
  br i1 %cmp, label %if.then, label %lor.lhs.false

lor.lhs.false:                                    ; preds = %entry
  %max3 = getelementptr inbounds %"class.Imath_3_2::Box", ptr %this1, i32 0, i32 1
  %call4 = call noundef nonnull align 4 dereferenceable(4) ptr @_ZNK9Imath_3_24Vec2IiEixEi(ptr noundef nonnull align 4 dereferenceable(8) %max3, i32 noundef 1) #3
  %2 = load i32, ptr %call4, align 4
  %min5 = getelementptr inbounds %"class.Imath_3_2::Box", ptr %this1, i32 0, i32 0
  %call6 = call noundef nonnull align 4 dereferenceable(4) ptr @_ZNK9Imath_3_24Vec2IiEixEi(ptr noundef nonnull align 4 dereferenceable(8) %min5, i32 noundef 1) #3
  %3 = load i32, ptr %call6, align 4
  %cmp7 = icmp slt i32 %2, %3
  br i1 %cmp7, label %if.then, label %if.end

if.then:                                          ; preds = %lor.lhs.false, %entry
  store i1 true, ptr %retval, align 1
  br label %return

if.end:                                           ; preds = %lor.lhs.false
  store i1 false, ptr %retval, align 1
  br label %return

return:                                           ; preds = %if.end, %if.then
  %4 = load i1, ptr %retval, align 1
  ret i1 %4
}

; Function Attrs: mustprogress uwtable
define void @_ZN7Imf_3_219TiledRgbaOutputFileC2EPKciiNS_9LevelModeENS_17LevelRoundingModeERKN9Imath_3_23BoxINS5_4Vec2IiEEEESB_NS_12RgbaChannelsEfNS7_IfEEfNS_9LineOrderENS_11CompressionEi(ptr noundef nonnull align 8 dereferenceable(24) %this, ptr noundef %name, i32 noundef %tileXSize, i32 noundef %tileYSize, i32 noundef %mode, i32 noundef %rmode, ptr noundef nonnull align 4 dereferenceable(16) %displayWindow, ptr noundef nonnull align 4 dereferenceable(16) %dataWindow, i32 noundef %rgbaChannels, float noundef %pixelAspectRatio, ptr noundef %screenWindowCenter, float noundef %screenWindowWidth, i32 noundef %lineOrder, i32 noundef %compression, i32 noundef %numThreads) unnamed_addr #4 align 2 personality ptr @__gxx_personality_v0 {
entry:
  %this.addr = alloca ptr, align 8
  %name.addr = alloca ptr, align 8
  %tileXSize.addr = alloca i32, align 4
  %tileYSize.addr = alloca i32, align 4
  %mode.addr = alloca i32, align 4
  %rmode.addr = alloca i32, align 4
  %displayWindow.addr = alloca ptr, align 8
  %dataWindow.addr = alloca ptr, align 8
  %rgbaChannels.addr = alloca i32, align 4
  %pixelAspectRatio.addr = alloca float, align 4
  %screenWindowCenter.indirect_addr = alloca ptr, align 8
  %screenWindowWidth.addr = alloca float, align 4
  %lineOrder.addr = alloca i32, align 4
  %compression.addr = alloca i32, align 4
  %numThreads.addr = alloca i32, align 4
  %hd = alloca %"class.Imf_3_2::Header", align 8
  %exn.slot = alloca ptr, align 8
  %ehselector.slot = alloca i32, align 4
  %ref.tmp = alloca %"class.Imf_3_2::TileDescription", align 4
  store ptr %this, ptr %this.addr, align 8
  store ptr %name, ptr %name.addr, align 8
  store i32 %tileXSize, ptr %tileXSize.addr, align 4
  store i32 %tileYSize, ptr %tileYSize.addr, align 4
  store i32 %mode, ptr %mode.addr, align 4
  store i32 %rmode, ptr %rmode.addr, align 4
  store ptr %displayWindow, ptr %displayWindow.addr, align 8
  store ptr %dataWindow, ptr %dataWindow.addr, align 8
  store i32 %rgbaChannels, ptr %rgbaChannels.addr, align 4
  store float %pixelAspectRatio, ptr %pixelAspectRatio.addr, align 4
  store ptr %screenWindowCenter, ptr %screenWindowCenter.indirect_addr, align 8
  store float %screenWindowWidth, ptr %screenWindowWidth.addr, align 4
  store i32 %lineOrder, ptr %lineOrder.addr, align 4
  store i32 %compression, ptr %compression.addr, align 4
  store i32 %numThreads, ptr %numThreads.addr, align 4
  %this1 = load ptr, ptr %this.addr, align 8
  store ptr getelementptr inbounds ({ [4 x ptr] }, ptr @_ZTVN7Imf_3_219TiledRgbaOutputFileE, i32 0, i32 0, i32 2), ptr %this1, align 8
  %_outputFile = getelementptr inbounds %"class.Imf_3_2::TiledRgbaOutputFile", ptr %this1, i32 0, i32 1
  store ptr null, ptr %_outputFile, align 8
  %_toYa = getelementptr inbounds %"class.Imf_3_2::TiledRgbaOutputFile", ptr %this1, i32 0, i32 2
  store ptr null, ptr %_toYa, align 8
  %0 = load ptr, ptr %displayWindow.addr, align 8
  %1 = load ptr, ptr %dataWindow.addr, align 8
  %call = call noundef zeroext i1 @_ZNK9Imath_3_23BoxINS_4Vec2IiEEE7isEmptyEv(ptr noundef nonnull align 4 dereferenceable(16) %1) #3
  br i1 %call, label %cond.true, label %cond.false

cond.true:                                        ; preds = %entry
  %2 = load ptr, ptr %displayWindow.addr, align 8
  br label %cond.end

cond.false:                                       ; preds = %entry
  %3 = load ptr, ptr %dataWindow.addr, align 8
  br label %cond.end

cond.end:                                         ; preds = %cond.false, %cond.true
  %cond-lvalue = phi ptr [ %2, %cond.true ], [ %3, %cond.false ]
  %4 = load float, ptr %pixelAspectRatio.addr, align 4
  %5 = load float, ptr %screenWindowWidth.addr, align 4
  %6 = load i32, ptr %lineOrder.addr, align 4
  %7 = load i32, ptr %compression.addr, align 4
  call void @_ZN7Imf_3_26HeaderC1ERKN9Imath_3_23BoxINS1_4Vec2IiEEEES7_fRKNS3_IfEEfNS_9LineOrderENS_11CompressionE(ptr noundef nonnull align 8 dereferenceable(49) %hd, ptr noundef nonnull align 4 dereferenceable(16) %0, ptr noundef nonnull align 4 dereferenceable(16) %cond-lvalue, float noundef %4, ptr noundef nonnull align 4 dereferenceable(8) %screenWindowCenter, float noundef %5, i32 noundef %6, i32 noundef %7)
  %8 = load i32, ptr %rgbaChannels.addr, align 4
  %9 = load ptr, ptr %name.addr, align 8
  invoke void @_ZN7Imf_3_212_GLOBAL__N_114insertChannelsERNS_6HeaderENS_12RgbaChannelsEPKc(ptr noundef nonnull align 8 dereferenceable(49) %hd, i32 noundef %8, ptr noundef %9)
          to label %invoke.cont unwind label %lpad

invoke.cont:                                      ; preds = %cond.end
  %10 = load i32, ptr %tileXSize.addr, align 4
  %11 = load i32, ptr %tileYSize.addr, align 4
  %12 = load i32, ptr %mode.addr, align 4
  %13 = load i32, ptr %rmode.addr, align 4
  invoke void @_ZN7Imf_3_215TileDescriptionC2EjjNS_9LevelModeENS_17LevelRoundingModeE(ptr noundef nonnull align 4 dereferenceable(16) %ref.tmp, i32 noundef %10, i32 noundef %11, i32 noundef %12, i32 noundef %13)
          to label %invoke.cont2 unwind label %lpad

invoke.cont2:                                     ; preds = %invoke.cont
  invoke void @_ZN7Imf_3_26Header18setTileDescriptionERKNS_15TileDescriptionE(ptr noundef nonnull align 8 dereferenceable(49) %hd, ptr noundef nonnull align 4 dereferenceable(16) %ref.tmp)
          to label %invoke.cont3 unwind label %lpad

invoke.cont3:                                     ; preds = %invoke.cont2
  %call5 = invoke noalias noundef nonnull ptr @_Znwm(i64 noundef 32) #12
          to label %invoke.cont4 unwind label %lpad

invoke.cont4:                                     ; preds = %invoke.cont3
  %14 = load ptr, ptr %name.addr, align 8
  %15 = load i32, ptr %numThreads.addr, align 4
  invoke void @_ZN7Imf_3_215TiledOutputFileC1EPKcRKNS_6HeaderEi(ptr noundef nonnull align 8 dereferenceable(25) %call5, ptr noundef %14, ptr noundef nonnull align 8 dereferenceable(49) %hd, i32 noundef %15)
          to label %invoke.cont7 unwind label %lpad6

invoke.cont7:                                     ; preds = %invoke.cont4
  %_outputFile8 = getelementptr inbounds %"class.Imf_3_2::TiledRgbaOutputFile", ptr %this1, i32 0, i32 1
  store ptr %call5, ptr %_outputFile8, align 8
  %16 = load i32, ptr %rgbaChannels.addr, align 4
  %and = and i32 %16, 16
  %tobool = icmp ne i32 %and, 0
  br i1 %tobool, label %if.then, label %if.end

if.then:                                          ; preds = %invoke.cont7
  %call10 = invoke noalias noundef nonnull ptr @_Znwm(i64 noundef 80) #12
          to label %invoke.cont9 unwind label %lpad

invoke.cont9:                                     ; preds = %if.then
  %_outputFile11 = getelementptr inbounds %"class.Imf_3_2::TiledRgbaOutputFile", ptr %this1, i32 0, i32 1
  %17 = load ptr, ptr %_outputFile11, align 8
  %18 = load i32, ptr %rgbaChannels.addr, align 4
  invoke void @_ZN7Imf_3_219TiledRgbaOutputFile4ToYaC1ERNS_15TiledOutputFileENS_12RgbaChannelsE(ptr noundef nonnull align 8 dereferenceable(80) %call10, ptr noundef nonnull align 8 dereferenceable(25) %17, i32 noundef %18)
          to label %invoke.cont13 unwind label %lpad12

invoke.cont13:                                    ; preds = %invoke.cont9
  %_toYa14 = getelementptr inbounds %"class.Imf_3_2::TiledRgbaOutputFile", ptr %this1, i32 0, i32 2
  store ptr %call10, ptr %_toYa14, align 8
  br label %if.end

lpad:                                             ; preds = %if.then, %invoke.cont3, %invoke.cont2, %invoke.cont, %cond.end
  %19 = landingpad { ptr, i32 }
          cleanup
  %20 = extractvalue { ptr, i32 } %19, 0
  store ptr %20, ptr %exn.slot, align 8
  %21 = extractvalue { ptr, i32 } %19, 1
  store i32 %21, ptr %ehselector.slot, align 4
  br label %ehcleanup

lpad6:                                            ; preds = %invoke.cont4
  %22 = landingpad { ptr, i32 }
          cleanup
  %23 = extractvalue { ptr, i32 } %22, 0
  store ptr %23, ptr %exn.slot, align 8
  %24 = extractvalue { ptr, i32 } %22, 1
  store i32 %24, ptr %ehselector.slot, align 4
  call void @_ZdlPv(ptr noundef %call5) #13
  br label %ehcleanup

lpad12:                                           ; preds = %invoke.cont9
  %25 = landingpad { ptr, i32 }
          cleanup
  %26 = extractvalue { ptr, i32 } %25, 0
  store ptr %26, ptr %exn.slot, align 8
  %27 = extractvalue { ptr, i32 } %25, 1
  store i32 %27, ptr %ehselector.slot, align 4
  call void @_ZdlPv(ptr noundef %call10) #13
  br label %ehcleanup

if.end:                                           ; preds = %invoke.cont13, %invoke.cont7
  call void @_ZN7Imf_3_26HeaderD1Ev(ptr noundef nonnull align 8 dereferenceable(49) %hd) #3
  ret void

ehcleanup:                                        ; preds = %lpad12, %lpad6, %lpad
  call void @_ZN7Imf_3_26HeaderD1Ev(ptr noundef nonnull align 8 dereferenceable(49) %hd) #3
  br label %eh.resume

eh.resume:                                        ; preds = %ehcleanup
  %exn = load ptr, ptr %exn.slot, align 8
  %sel = load i32, ptr %ehselector.slot, align 4
  %lpad.val = insertvalue { ptr, i32 } poison, ptr %exn, 0
  %lpad.val15 = insertvalue { ptr, i32 } %lpad.val, i32 %sel, 1
  resume { ptr, i32 } %lpad.val15
}